target datalayout = "e-m:e-p270:32:32-p271:32:32-p272:64:64-i64:64-i128:128-f80:128-n8:16:32:64-S128"
target triple = "x86_64-pc-linux-gnu"

%struct.client_response = type { ptr }

@plugin_type = external constant [0 x i8], align 1
@.str.79 = private unnamed_addr constant [5 x i8] c"name\00", align 1
@.str.86 = private unnamed_addr constant [41 x i8] c"%s: %s: mpi/pmi2: in _handle_lookup_name\00", align 1
@__func__._handle_name_lookup = private unnamed_addr constant [20 x i8] c"_handle_name_lookup\00", align 1
@.str.87 = private unnamed_addr constant [26 x i8] c"cmd=name-lookup-response;\00", align 1
@.str.88 = private unnamed_addr constant [6 x i8] c"rc=1;\00", align 1
@.str.89 = private unnamed_addr constant [15 x i8] c"rc=0;value=%s;\00", align 1
@.str.90 = private unnamed_addr constant [42 x i8] c"%s: %s: mpi/pmi2: out _handle_lookup_name\00", align 1

; Function Attrs: nounwind uwtable
define internal i32 @_handle_name_lookup(i32 noundef %0, i32 noundef %1, ptr noundef %2) #0 {
  %4 = alloca i32, align 4
  %5 = alloca i32, align 4
  %6 = alloca ptr, align 8
  %7 = alloca i32, align 4
  %8 = alloca ptr, align 8
  %9 = alloca ptr, align 8
  %10 = alloca ptr, align 8
  store i32 %0, ptr %4, align 4
  store i32 %1, ptr %5, align 4
  store ptr %2, ptr %6, align 8
  call void @llvm.lifetime.start.p0(i64 4, ptr %7) #6
  call void @llvm.lifetime.start.p0(i64 8, ptr %8) #6
  call void @llvm.lifetime.start.p0(i64 8, ptr %9) #6
  store ptr null, ptr %9, align 8
  call void @llvm.lifetime.start.p0(i64 8, ptr %10) #6
  store ptr null, ptr %10, align 8
  br label %11

11:                                               ; preds = %3
  br label %12

12:                                               ; preds = %11
  %13 = call i32 @slurm_get_log_level()
  %14 = icmp sge i32 %13, 7
  br i1 %14, label %15, label %16

15:                                               ; preds = %12
  call void (i32, ptr, ...) @slurm_log_var(i32 noundef 7, ptr noundef @.str.86, ptr noundef @plugin_type, ptr noundef @__func__._handle_name_lookup)
  br label %16

16:                                               ; preds = %15, %12
  br label %17

17:                                               ; preds = %16
  br label %18

18:                                               ; preds = %17
  br label %19

19:                                               ; preds = %18
  br label %20

20:                                               ; preds = %19
  %21 = load ptr, ptr %6, align 8
  %22 = call i32 @client_req_parse_body(ptr noundef %21)
  %23 = load ptr, ptr %6, align 8
  %24 = call zeroext i1 @client_req_get_str(ptr noundef %23, ptr noundef @.str.79, ptr noundef %9)
  %25 = load ptr, ptr %9, align 8
  %26 = call ptr @name_lookup_up(ptr noundef %25)
  store ptr %26, ptr %10, align 8
  %27 = call ptr @client_resp_new()
  store ptr %27, ptr %8, align 8
  br label %28

28:                                               ; preds = %20
  %29 = load ptr, ptr %8, align 8
  %30 = getelementptr inbounds nuw %struct.client_response, ptr %29, i32 0, i32 0
  call void (ptr, ptr, ...) @slurm_xstrfmtcat(ptr noundef %30, ptr noundef @.str.87)
  br label %31

31:                                               ; preds = %28
  br label %32

32:                                               ; preds = %31
  %33 = load ptr, ptr %10, align 8
  %34 = icmp eq ptr %33, null
  br i1 %34, label %35, label %41

35:                                               ; preds = %32
  br label %36

36:                                               ; preds = %35
  %37 = load ptr, ptr %8, align 8
  %38 = getelementptr inbounds nuw %struct.client_response, ptr %37, i32 0, i32 0
  call void (ptr, ptr, ...) @slurm_xstrfmtcat(ptr noundef %38, ptr noundef @.str.88)
  br label %39

39:                                               ; preds = %36
  br label %40

40:                                               ; preds = %39
  br label %48

41:                                               ; preds = %32
  br label %42

42:                                               ; preds = %41
  %43 = load ptr, ptr %8, align 8
  %44 = getelementptr inbounds nuw %struct.client_response, ptr %43, i32 0, i32 0
  %45 = load ptr, ptr %10, align 8
  call void (ptr, ptr, ...) @slurm_xstrfmtcat(ptr noundef %44, ptr noundef @.str.89, ptr noundef %45)
  br label %46

46:                                               ; preds = %42
  br label %47

47:                                               ; preds = %46
  br label %48

48:                                               ; preds = %47, %40
  %49 = load ptr, ptr %8, align 8
  %50 = load i32, ptr %4, align 4
  %51 = call i32 @client_resp_send(ptr noundef %49, i32 noundef %50)
  store i32 %51, ptr %7, align 4
  %52 = load ptr, ptr %8, align 8
  call void @client_resp_free(ptr noundef %52)
  call void @slurm_xfree(ptr noundef %9)
  call void @slurm_xfree(ptr noundef %10)
  br label %53

53:                                               ; preds = %48
  br label %54

54:                                               ; preds = %53
  %55 = call i32 @slurm_get_log_level()
  %56 = icmp sge i32 %55, 7
  br i1 %56, label %57, label %58

57:                                               ; preds = %54
  call void (i32, ptr, ...) @slurm_log_var(i32 noundef 7, ptr noundef @.str.90, ptr noundef @plugin_type, ptr noundef @__func__._handle_name_lookup)
  br label %58

58:                                               ; preds = %57, %54
  br label %59

59:                                               ; preds = %58
  br label %60

60:                                               ; preds = %59
  br label %61

61:                                               ; preds = %60
  br label %62

62:                                               ; preds = %61
  %63 = load i32, ptr %7, align 4
  call void @llvm.lifetime.end.p0(i64 8, ptr %10) #6
  call void @llvm.lifetime.end.p0(i64 8, ptr %9) #6
  call void @llvm.lifetime.end.p0(i64 8, ptr %8) #6
  call void @llvm.lifetime.end.p0(i64 4, ptr %7) #6
  ret i32 %63
}