; Function Attrs: nounwind uwtable
define internal i32 @_handle_name_lookup(i32 noundef %0, i32 %1, ptr noundef %2) #0 {
  %4 = alloca ptr, align 8
  %5 = alloca ptr, align 8
  call void @llvm.lifetime.start.p0(i64 8, ptr nonnull %4) #7
  store ptr null, ptr %4, align 8
  call void @llvm.lifetime.start.p0(i64 8, ptr nonnull %5) #7
  %6 = tail call i32 @slurm_get_log_level() #7
  %7 = icmp sgt i32 %6, 6
  br i1 %7, label %8, label %9

8:                                                ; preds = %3
  tail call void (i32, ptr, ...) @slurm_log_var(i32 noundef 7, ptr noundef nonnull @.str.86, ptr noundef nonnull @plugin_type, ptr noundef nonnull @__func__._handle_name_lookup) #7
  br label %9

9:                                                ; preds = %8, %3
  %10 = tail call i32 @client_req_parse_body(ptr noundef %2) #7
  %11 = call zeroext i1 @client_req_get_str(ptr noundef %2, ptr noundef nonnull @.str.79, ptr noundef nonnull %4) #7
  %12 = load ptr, ptr %4, align 8
  %13 = call ptr @name_lookup_up(ptr noundef %12) #7
  store ptr %13, ptr %5, align 8
  %14 = call ptr @client_resp_new() #7
  call void (ptr, ptr, ...) @slurm_xstrfmtcat(ptr noundef %14, ptr noundef nonnull @.str.87) #7
  %15 = icmp eq ptr %13, null
  br i1 %15, label %16, label %17

16:                                               ; preds = %9
  call void (ptr, ptr, ...) @slurm_xstrfmtcat(ptr noundef %14, ptr noundef nonnull @.str.88) #7
  br label %18

17:                                               ; preds = %9
  call void (ptr, ptr, ...) @slurm_xstrfmtcat(ptr noundef %14, ptr noundef nonnull @.str.89, ptr noundef nonnull %13) #7
  br label %18

18:                                               ; preds = %17, %16
  %19 = call i32 @client_resp_send(ptr noundef %14, i32 noundef %0) #7
  call void @client_resp_free(ptr noundef %14) #7
  call void @slurm_xfree(ptr noundef nonnull %4) #7
  call void @slurm_xfree(ptr noundef nonnull %5) #7
  %20 = call i32 @slurm_get_log_level() #7
  %21 = icmp sgt i32 %20, 6
  br i1 %21, label %22, label %23

22:                                               ; preds = %18
  call void (i32, ptr, ...) @slurm_log_var(i32 noundef 7, ptr noundef nonnull @.str.90, ptr noundef nonnull @plugin_type, ptr noundef nonnull @__func__._handle_name_lookup) #7
  br label %23

23:                                               ; preds = %22, %18
  call void @llvm.lifetime.end.p0(i64 8, ptr nonnull %5) #7
  call void @llvm.lifetime.end.p0(i64 8, ptr nonnull %4) #7
  ret i32 %19
}